target datalayout = "e-m:e-p270:32:32-p271:32:32-p272:64:64-i64:64-i128:128-f80:128-n8:16:32:64-S128"
target triple = "x86_64-pc-linux-gnu"

%struct.quic_stream_map_st = type { ptr, %struct.quic_stream_list_node_st, %struct.quic_stream_list_node_st, %struct.quic_stream_list_node_st, i64, i64, i64, i64, i64, ptr, ptr, ptr, ptr, ptr, i32 }
%struct.quic_stream_list_node_st = type { ptr, ptr }
%struct.quic_stream_st = type { %struct.quic_stream_list_node_st, %struct.quic_stream_list_node_st, %struct.quic_stream_list_node_st, ptr, i64, i64, i64, i64, i64, i64, i64, ptr, ptr, %struct.quic_txfc_st, %struct.quic_rxfc_st, i64 }
%struct.quic_txfc_st = type { ptr, i64, i64, i8 }
%struct.quic_rxfc_st = type { i64, i64, i64, i64, i64, i64, i64, %struct.OSSL_TIME, ptr, ptr, ptr, i8, i8, i8, i8 }
%struct.OSSL_TIME = type { i64 }

; Function Attrs: inlinehint nounwind uwtable
define internal i32 @ossl_quic_stream_is_bidi(ptr noundef %0) #1 {
  %2 = alloca ptr, align 8
  store ptr %0, ptr %2, align 8, !tbaa !37
  %3 = load ptr, ptr %2, align 8, !tbaa !37
  %4 = getelementptr inbounds nuw %struct.quic_stream_st, ptr %3, i32 0, i32 15
  %5 = load i64, ptr %4, align 8
  %6 = and i64 %5, 255
  %7 = trunc i64 %6 to i32
  %8 = and i32 %7, 2
  %9 = icmp eq i32 %8, 0
  %10 = zext i1 %9 to i32
  ret i32 %10
}

; Function Attrs: nounwind uwtable
define internal void @list_insert_tail(ptr noundef %0, ptr noundef %1) #0 {
  %3 = alloca ptr, align 8
  %4 = alloca ptr, align 8
  store ptr %0, ptr %3, align 8, !tbaa !54
  store ptr %1, ptr %4, align 8, !tbaa !54
  %5 = load ptr, ptr %3, align 8, !tbaa !54
  %6 = getelementptr inbounds nuw %struct.quic_stream_list_node_st, ptr %5, i32 0, i32 0
  %7 = load ptr, ptr %6, align 8, !tbaa !56
  %8 = load ptr, ptr %4, align 8, !tbaa !54
  %9 = getelementptr inbounds nuw %struct.quic_stream_list_node_st, ptr %8, i32 0, i32 0
  store ptr %7, ptr %9, align 8, !tbaa !56
  %10 = load ptr, ptr %4, align 8, !tbaa !54
  %11 = load ptr, ptr %4, align 8, !tbaa !54
  %12 = getelementptr inbounds nuw %struct.quic_stream_list_node_st, ptr %11, i32 0, i32 0
  %13 = load ptr, ptr %12, align 8, !tbaa !56
  %14 = getelementptr inbounds nuw %struct.quic_stream_list_node_st, ptr %13, i32 0, i32 1
  store ptr %10, ptr %14, align 8, !tbaa !55
  %15 = load ptr, ptr %4, align 8, !tbaa !54
  %16 = load ptr, ptr %3, align 8, !tbaa !54
  %17 = getelementptr inbounds nuw %struct.quic_stream_list_node_st, ptr %16, i32 0, i32 0
  store ptr %15, ptr %17, align 8, !tbaa !56
  %18 = load ptr, ptr %3, align 8, !tbaa !54
  %19 = load ptr, ptr %4, align 8, !tbaa !54
  %20 = getelementptr inbounds nuw %struct.quic_stream_list_node_st, ptr %19, i32 0, i32 1
  store ptr %18, ptr %20, align 8, !tbaa !55
  ret void
}

; Function Attrs: nounwind uwtable
define void @ossl_quic_stream_map_push_accept_queue(ptr noundef %0, ptr noundef %1) #0 {
  %3 = alloca ptr, align 8
  %4 = alloca ptr, align 8
  store ptr %0, ptr %3, align 8, !tbaa !3
  store ptr %1, ptr %4, align 8, !tbaa !37
  %5 = load ptr, ptr %3, align 8, !tbaa !3
  %6 = getelementptr inbounds nuw %struct.quic_stream_map_st, ptr %5, i32 0, i32 2
  %7 = load ptr, ptr %4, align 8, !tbaa !37
  %8 = getelementptr inbounds nuw %struct.quic_stream_st, ptr %7, i32 0, i32 1
  call void @list_insert_tail(ptr noundef %6, ptr noundef %8)
  %9 = load ptr, ptr %4, align 8, !tbaa !37
  %10 = call i32 @ossl_quic_stream_is_bidi(ptr noundef %9)
  %11 = icmp ne i32 %10, 0
  br i1 %11, label %12, label %17

12:                                               ; preds = %2
  %13 = load ptr, ptr %3, align 8, !tbaa !3
  %14 = getelementptr inbounds nuw %struct.quic_stream_map_st, ptr %13, i32 0, i32 6
  %15 = load i64, ptr %14, align 8, !tbaa !29
  %16 = add i64 %15, 1
  store i64 %16, ptr %14, align 8, !tbaa !29
  br label %22

17:                                               ; preds = %2
  %18 = load ptr, ptr %3, align 8, !tbaa !3
  %19 = getelementptr inbounds nuw %struct.quic_stream_map_st, ptr %18, i32 0, i32 7
  %20 = load i64, ptr %19, align 8, !tbaa !30
  %21 = add i64 %20, 1
  store i64 %21, ptr %19, align 8, !tbaa !30
  br label %22

22:                                               ; preds = %17, %12
  ret void
}