; Function Attrs: mustprogress nofree norecurse nosync nounwind willreturn memory(write, argmem: readwrite, inaccessiblemem: none) uwtable
define void @ossl_quic_stream_map_push_accept_queue(ptr noundef %0, ptr noundef initializes((16, 24)) %1) local_unnamed_addr #7 {
  %3 = getelementptr inbounds nuw i8, ptr %0, i64 24
  %4 = getelementptr inbounds nuw i8, ptr %1, i64 16
  %5 = load ptr, ptr %3, align 8, !tbaa !37
  store ptr %5, ptr %4, align 8, !tbaa !37
  %6 = getelementptr inbounds nuw i8, ptr %5, i64 8
  store ptr %4, ptr %6, align 8, !tbaa !38
  store ptr %4, ptr %3, align 8, !tbaa !37
  %7 = getelementptr inbounds nuw i8, ptr %1, i64 24
  store ptr %3, ptr %7, align 8, !tbaa !38
  %8 = getelementptr i8, ptr %1, i64 256
  %.val = load i64, ptr %8, align 8
  %9 = and i64 %.val, 2
  %.not = icmp eq i64 %9, 0
  %. = select i1 %.not, i64 72, i64 80
  %10 = getelementptr inbounds nuw i8, ptr %0, i64 %.
  %11 = load i64, ptr %10, align 8, !tbaa !45
  %12 = add i64 %11, 1
  store i64 %12, ptr %10, align 8, !tbaa !45
  ret void
}